; Function Attrs: nounwind sspstrong uwtable
define dso_local void @qnum_destroy_obj(ptr noundef %obj) local_unnamed_addr #0 {
entry:
  %cmp.not = icmp eq ptr %obj, null
  br i1 %cmp.not, label %if.else, label %land.lhs.true.i

if.else:                                          ; preds = %entry
  tail call void @__assert_fail(ptr noundef nonnull @.str.6, ptr noundef nonnull @.str.1, i32 noundef 239, ptr noundef nonnull @__PRETTY_FUNCTION__.qnum_destroy_obj) #6
  unreachable

land.lhs.true.i:                                  ; preds = %entry
  %obj.val.i = load i32, ptr %obj, align 8
  %0 = add i32 %obj.val.i, -1
  %or.cond.i.i = icmp ult i32 %0, 6
  br i1 %or.cond.i.i, label %qobject_type.exit.i, label %if.else.i.i

if.else.i.i:                                      ; preds = %land.lhs.true.i
  tail call void @__assert_fail(ptr noundef nonnull @.str.9, ptr noundef nonnull @.str.10, i32 noundef 126, ptr noundef nonnull @__PRETTY_FUNCTION__.qobject_type) #6
  unreachable

qobject_type.exit.i:                              ; preds = %land.lhs.true.i
  %cmp.i = icmp eq i32 %obj.val.i, 2
  %spec.select = select i1 %cmp.i, ptr %obj, ptr null
  tail call void @g_free(ptr noundef %spec.select) #7
  ret void
}